target datalayout = "e-m:e-p270:32:32-p271:32:32-p272:64:64-i64:64-i128:128-f80:128-n8:16:32:64-S128"
target triple = "x86_64-pc-linux-gnu"

%struct.active_request_slot = type { ptr, i32, i32, i64, ptr, ptr, ptr, ptr, ptr }
%struct.CURLMsg = type { i32, ptr, %union.anon }
%union.anon = type { ptr }
%struct.slot_results = type { i32, i64, i64, i64 }

@curlm = internal global ptr null, align 8
@active_queue_head = internal global ptr null, align 8
@active_requests = dso_local global i32 0, align 4
@stderr = external global ptr, align 8
@.str.178 = private unnamed_addr constant [44 x i8] c"Received DONE message for unknown request!\0A\00", align 1
@.str.179 = private unnamed_addr constant [35 x i8] c"Unknown CURL message received: %d\0A\00", align 1

; Function Attrs: nounwind uwtable
define internal void @closedown_active_slot(ptr noundef %0) #0 {
  %2 = alloca ptr, align 8
  store ptr %0, ptr %2, align 8, !tbaa !88
  %3 = load i32, ptr @active_requests, align 4, !tbaa !19
  %4 = add nsw i32 %3, -1
  store i32 %4, ptr @active_requests, align 4, !tbaa !19
  %5 = load ptr, ptr %2, align 8, !tbaa !88
  %6 = getelementptr inbounds nuw %struct.active_request_slot, ptr %5, i32 0, i32 1
  store i32 0, ptr %6, align 8, !tbaa !97
  ret void
}

; Function Attrs: nounwind uwtable
define internal void @finish_active_slot(ptr noundef %0) #0 {
  %2 = alloca ptr, align 8
  store ptr %0, ptr %2, align 8, !tbaa !88
  %3 = load ptr, ptr %2, align 8, !tbaa !88
  call void @closedown_active_slot(ptr noundef %3)
  %4 = load ptr, ptr %2, align 8, !tbaa !88
  %5 = getelementptr inbounds nuw %struct.active_request_slot, ptr %4, i32 0, i32 0
  %6 = load ptr, ptr %5, align 8, !tbaa !94
  %7 = load ptr, ptr %2, align 8, !tbaa !88
  %8 = getelementptr inbounds nuw %struct.active_request_slot, ptr %7, i32 0, i32 3
  %9 = call i32 (ptr, i32, ...) @curl_easy_getinfo(ptr noundef %6, i32 noundef 2097154, ptr noundef %8)
  %10 = load ptr, ptr %2, align 8, !tbaa !88
  %11 = getelementptr inbounds nuw %struct.active_request_slot, ptr %10, i32 0, i32 4
  %12 = load ptr, ptr %11, align 8, !tbaa !101
  %13 = icmp ne ptr %12, null
  br i1 %13, label %14, label %18

14:                                               ; preds = %1
  %15 = load ptr, ptr %2, align 8, !tbaa !88
  %16 = getelementptr inbounds nuw %struct.active_request_slot, ptr %15, i32 0, i32 4
  %17 = load ptr, ptr %16, align 8, !tbaa !101
  store i32 1, ptr %17, align 4, !tbaa !19
  br label %18

18:                                               ; preds = %14, %1
  %19 = load ptr, ptr %2, align 8, !tbaa !88
  %20 = getelementptr inbounds nuw %struct.active_request_slot, ptr %19, i32 0, i32 5
  %21 = load ptr, ptr %20, align 8, !tbaa !100
  %22 = icmp ne ptr %21, null
  br i1 %22, label %23, label %54

23:                                               ; preds = %18
  %24 = load ptr, ptr %2, align 8, !tbaa !88
  %25 = getelementptr inbounds nuw %struct.active_request_slot, ptr %24, i32 0, i32 2
  %26 = load i32, ptr %25, align 4, !tbaa !110
  %27 = load ptr, ptr %2, align 8, !tbaa !88
  %28 = getelementptr inbounds nuw %struct.active_request_slot, ptr %27, i32 0, i32 5
  %29 = load ptr, ptr %28, align 8, !tbaa !100
  %30 = getelementptr inbounds nuw %struct.slot_results, ptr %29, i32 0, i32 0
  store i32 %26, ptr %30, align 8, !tbaa !139
  %31 = load ptr, ptr %2, align 8, !tbaa !88
  %32 = getelementptr inbounds nuw %struct.active_request_slot, ptr %31, i32 0, i32 3
  %33 = load i64, ptr %32, align 8, !tbaa !216
  %34 = load ptr, ptr %2, align 8, !tbaa !88
  %35 = getelementptr inbounds nuw %struct.active_request_slot, ptr %34, i32 0, i32 5
  %36 = load ptr, ptr %35, align 8, !tbaa !100
  %37 = getelementptr inbounds nuw %struct.slot_results, ptr %36, i32 0, i32 1
  store i64 %33, ptr %37, align 8, !tbaa !137
  %38 = load ptr, ptr %2, align 8, !tbaa !88
  %39 = getelementptr inbounds nuw %struct.active_request_slot, ptr %38, i32 0, i32 0
  %40 = load ptr, ptr %39, align 8, !tbaa !94
  %41 = load ptr, ptr %2, align 8, !tbaa !88
  %42 = getelementptr inbounds nuw %struct.active_request_slot, ptr %41, i32 0, i32 5
  %43 = load ptr, ptr %42, align 8, !tbaa !100
  %44 = getelementptr inbounds nuw %struct.slot_results, ptr %43, i32 0, i32 2
  %45 = call i32 (ptr, i32, ...) @curl_easy_getinfo(ptr noundef %40, i32 noundef 2097175, ptr noundef %44)
  %46 = load ptr, ptr %2, align 8, !tbaa !88
  %47 = getelementptr inbounds nuw %struct.active_request_slot, ptr %46, i32 0, i32 0
  %48 = load ptr, ptr %47, align 8, !tbaa !94
  %49 = load ptr, ptr %2, align 8, !tbaa !88
  %50 = getelementptr inbounds nuw %struct.active_request_slot, ptr %49, i32 0, i32 5
  %51 = load ptr, ptr %50, align 8, !tbaa !100
  %52 = getelementptr inbounds nuw %struct.slot_results, ptr %51, i32 0, i32 3
  %53 = call i32 (ptr, i32, ...) @curl_easy_getinfo(ptr noundef %48, i32 noundef 2097174, ptr noundef %52)
  br label %54

54:                                               ; preds = %23, %18
  %55 = load ptr, ptr %2, align 8, !tbaa !88
  %56 = getelementptr inbounds nuw %struct.active_request_slot, ptr %55, i32 0, i32 7
  %57 = load ptr, ptr %56, align 8, !tbaa !103
  %58 = icmp ne ptr %57, null
  br i1 %58, label %59, label %66

59:                                               ; preds = %54
  %60 = load ptr, ptr %2, align 8, !tbaa !88
  %61 = getelementptr inbounds nuw %struct.active_request_slot, ptr %60, i32 0, i32 7
  %62 = load ptr, ptr %61, align 8, !tbaa !103
  %63 = load ptr, ptr %2, align 8, !tbaa !88
  %64 = getelementptr inbounds nuw %struct.active_request_slot, ptr %63, i32 0, i32 6
  %65 = load ptr, ptr %64, align 8, !tbaa !102
  call void %62(ptr noundef %65)
  br label %66

66:                                               ; preds = %59, %54
  ret void
}

; Function Attrs: nounwind uwtable
define internal void @xmulti_remove_handle(ptr noundef %0) #0 {
  %2 = alloca ptr, align 8
  store ptr %0, ptr %2, align 8, !tbaa !88
  %3 = load ptr, ptr @curlm, align 8, !tbaa !11
  %4 = load ptr, ptr %2, align 8, !tbaa !88
  %5 = getelementptr inbounds nuw %struct.active_request_slot, ptr %4, i32 0, i32 0
  %6 = load ptr, ptr %5, align 8, !tbaa !94
  %7 = call i32 @curl_multi_remove_handle(ptr noundef %3, ptr noundef %6)
  ret void
}

; Function Attrs: nounwind uwtable
define internal void @process_curl_messages() #0 {
  %1 = alloca i32, align 4
  %2 = alloca ptr, align 8
  %3 = alloca ptr, align 8
  %4 = alloca i32, align 4
  call void @llvm.lifetime.start.p0(i64 4, ptr %1) #11
  call void @llvm.lifetime.start.p0(i64 8, ptr %2) #11
  call void @llvm.lifetime.start.p0(i64 8, ptr %3) #11
  %5 = load ptr, ptr @curlm, align 8, !tbaa !11
  %6 = call ptr @curl_multi_info_read(ptr noundef %5, ptr noundef %1)
  store ptr %6, ptr %3, align 8, !tbaa !104
  br label %7

7:                                                ; preds = %56, %0
  %8 = load ptr, ptr %3, align 8, !tbaa !104
  %9 = icmp ne ptr %8, null
  br i1 %9, label %10, label %59

10:                                               ; preds = %7
  %11 = load ptr, ptr %3, align 8, !tbaa !104
  %12 = getelementptr inbounds nuw %struct.CURLMsg, ptr %11, i32 0, i32 0
  %13 = load i32, ptr %12, align 8, !tbaa !106
  %14 = icmp eq i32 %13, 1
  br i1 %14, label %15, label %50

15:                                               ; preds = %10
  call void @llvm.lifetime.start.p0(i64 4, ptr %4) #11
  %16 = load ptr, ptr %3, align 8, !tbaa !104
  %17 = getelementptr inbounds nuw %struct.CURLMsg, ptr %16, i32 0, i32 2
  %18 = load i32, ptr %17, align 8, !tbaa !65
  store i32 %18, ptr %4, align 4, !tbaa !19
  %19 = load ptr, ptr @active_queue_head, align 8, !tbaa !88
  store ptr %19, ptr %2, align 8, !tbaa !88
  br label %20

20:                                               ; preds = %33, %15
  %21 = load ptr, ptr %2, align 8, !tbaa !88
  %22 = icmp ne ptr %21, null
  br i1 %22, label %23, label %31

23:                                               ; preds = %20
  %24 = load ptr, ptr %2, align 8, !tbaa !88
  %25 = getelementptr inbounds nuw %struct.active_request_slot, ptr %24, i32 0, i32 0
  %26 = load ptr, ptr %25, align 8, !tbaa !94
  %27 = load ptr, ptr %3, align 8, !tbaa !104
  %28 = getelementptr inbounds nuw %struct.CURLMsg, ptr %27, i32 0, i32 1
  %29 = load ptr, ptr %28, align 8, !tbaa !108
  %30 = icmp ne ptr %26, %29
  br label %31

31:                                               ; preds = %23, %20
  %32 = phi i1 [ false, %20 ], [ %30, %23 ]
  br i1 %32, label %33, label %37

33:                                               ; preds = %31
  %34 = load ptr, ptr %2, align 8, !tbaa !88
  %35 = getelementptr inbounds nuw %struct.active_request_slot, ptr %34, i32 0, i32 8
  %36 = load ptr, ptr %35, align 8, !tbaa !90
  store ptr %36, ptr %2, align 8, !tbaa !88
  br label %20, !llvm.loop !109

37:                                               ; preds = %31
  %38 = load ptr, ptr %2, align 8, !tbaa !88
  %39 = icmp ne ptr %38, null
  br i1 %39, label %40, label %46

40:                                               ; preds = %37
  %41 = load ptr, ptr %2, align 8, !tbaa !88
  call void @xmulti_remove_handle(ptr noundef %41)
  %42 = load i32, ptr %4, align 4, !tbaa !19
  %43 = load ptr, ptr %2, align 8, !tbaa !88
  %44 = getelementptr inbounds nuw %struct.active_request_slot, ptr %43, i32 0, i32 2
  store i32 %42, ptr %44, align 4, !tbaa !110
  %45 = load ptr, ptr %2, align 8, !tbaa !88
  call void @finish_active_slot(ptr noundef %45)
  br label %49

46:                                               ; preds = %37
  %47 = load ptr, ptr @stderr, align 8, !tbaa !111
  %48 = call i32 (ptr, ptr, ...) @fprintf(ptr noundef %47, ptr noundef @.str.178) #11
  br label %49

49:                                               ; preds = %46, %40
  call void @llvm.lifetime.end.p0(i64 4, ptr %4) #11
  br label %56

50:                                               ; preds = %10
  %51 = load ptr, ptr @stderr, align 8, !tbaa !111
  %52 = load ptr, ptr %3, align 8, !tbaa !104
  %53 = getelementptr inbounds nuw %struct.CURLMsg, ptr %52, i32 0, i32 0
  %54 = load i32, ptr %53, align 8, !tbaa !106
  %55 = call i32 (ptr, ptr, ...) @fprintf(ptr noundef %51, ptr noundef @.str.179, i32 noundef %54) #11
  br label %56

56:                                               ; preds = %50, %49
  %57 = load ptr, ptr @curlm, align 8, !tbaa !11
  %58 = call ptr @curl_multi_info_read(ptr noundef %57, ptr noundef %1)
  store ptr %58, ptr %3, align 8, !tbaa !104
  br label %7, !llvm.loop !113

59:                                               ; preds = %7
  call void @llvm.lifetime.end.p0(i64 8, ptr %3) #11
  call void @llvm.lifetime.end.p0(i64 8, ptr %2) #11
  call void @llvm.lifetime.end.p0(i64 4, ptr %1) #11
  ret void
}