; Function Attrs: nounwind uwtable
define internal fastcc void @process_curl_messages() unnamed_addr #3 {
  %1 = alloca i32, align 4
  call void @llvm.lifetime.start.p0(i64 4, ptr nonnull %1) #22
  %2 = load ptr, ptr @curlm, align 8, !tbaa !62
  %3 = call ptr @curl_multi_info_read(ptr noundef %2, ptr noundef nonnull %1) #22
  %.not21 = icmp eq ptr %3, null
  br i1 %.not21, label %._crit_edge, label %.lr.ph23

.lr.ph23:                                         ; preds = %0, %finish_active_slot.exit
  %.01222 = phi ptr [ %53, %finish_active_slot.exit ], [ %3, %0 ]
  %4 = load i32, ptr %.01222, align 8, !tbaa !93
  %5 = icmp eq i32 %4, 1
  br i1 %5, label %6, label %49

6:                                                ; preds = %.lr.ph23
  %7 = getelementptr inbounds nuw i8, ptr %.01222, i64 16
  %8 = load i32, ptr %7, align 8, !tbaa !24
  %.018 = load ptr, ptr @active_queue_head, align 8, !tbaa !81
  %.not1419 = icmp eq ptr %.018, null
  br i1 %.not1419, label %.critedge16, label %.lr.ph

.lr.ph:                                           ; preds = %6
  %9 = getelementptr inbounds nuw i8, ptr %.01222, i64 8
  %10 = load ptr, ptr %9, align 8, !tbaa !95
  br label %11

11:                                               ; preds = %.lr.ph, %13
  %.020 = phi ptr [ %.018, %.lr.ph ], [ %.0, %13 ]
  %12 = load ptr, ptr %.020, align 8, !tbaa !87
  %.not15 = icmp eq ptr %12, %10
  br i1 %.not15, label %.critedge, label %13

13:                                               ; preds = %11
  %14 = getelementptr inbounds nuw i8, ptr %.020, i64 56
  %.0 = load ptr, ptr %14, align 8, !tbaa !81
  %.not14 = icmp eq ptr %.0, null
  br i1 %.not14, label %.critedge16, label %11, !llvm.loop !96

.critedge:                                        ; preds = %11
  %15 = load ptr, ptr @curlm, align 8, !tbaa !62
  %16 = call i32 @curl_multi_remove_handle(ptr noundef %15, ptr noundef %12) #22
  %17 = getelementptr inbounds nuw i8, ptr %.020, i64 12
  store i32 %8, ptr %17, align 4, !tbaa !97
  %18 = load i32, ptr @active_requests, align 4, !tbaa !38
  %19 = add nsw i32 %18, -1
  store i32 %19, ptr @active_requests, align 4, !tbaa !38
  %20 = getelementptr inbounds nuw i8, ptr %.020, i64 8
  store i32 0, ptr %20, align 8, !tbaa !90
  %21 = load ptr, ptr %.020, align 8, !tbaa !87
  %22 = getelementptr inbounds nuw i8, ptr %.020, i64 16
  %23 = call i32 (ptr, i32, ...) @curl_easy_getinfo(ptr noundef %21, i32 noundef 2097154, ptr noundef nonnull %22) #22
  %24 = getelementptr inbounds nuw i8, ptr %.020, i64 24
  %25 = load ptr, ptr %24, align 8, !tbaa !98
  %.not.i = icmp eq ptr %25, null
  br i1 %.not.i, label %27, label %26

26:                                               ; preds = %.critedge
  store i32 1, ptr %25, align 4, !tbaa !38
  br label %27

27:                                               ; preds = %26, %.critedge
  %28 = getelementptr inbounds nuw i8, ptr %.020, i64 32
  %29 = load ptr, ptr %28, align 8, !tbaa !99
  %.not19.i = icmp eq ptr %29, null
  br i1 %.not19.i, label %41, label %30

30:                                               ; preds = %27
  %31 = load i32, ptr %17, align 4, !tbaa !97
  store i32 %31, ptr %29, align 8, !tbaa !100
  %32 = load i64, ptr %22, align 8, !tbaa !102
  %33 = getelementptr inbounds nuw i8, ptr %29, i64 8
  store i64 %32, ptr %33, align 8, !tbaa !103
  %34 = load ptr, ptr %.020, align 8, !tbaa !87
  %35 = getelementptr inbounds nuw i8, ptr %29, i64 16
  %36 = call i32 (ptr, i32, ...) @curl_easy_getinfo(ptr noundef %34, i32 noundef 2097175, ptr noundef nonnull %35) #22
  %37 = load ptr, ptr %.020, align 8, !tbaa !87
  %38 = load ptr, ptr %28, align 8, !tbaa !99
  %39 = getelementptr inbounds nuw i8, ptr %38, i64 24
  %40 = call i32 (ptr, i32, ...) @curl_easy_getinfo(ptr noundef %37, i32 noundef 2097174, ptr noundef nonnull %39) #22
  br label %41

41:                                               ; preds = %30, %27
  %42 = getelementptr inbounds nuw i8, ptr %.020, i64 48
  %43 = load ptr, ptr %42, align 8, !tbaa !104
  %.not20.i = icmp eq ptr %43, null
  br i1 %.not20.i, label %finish_active_slot.exit, label %44

44:                                               ; preds = %41
  %45 = getelementptr inbounds nuw i8, ptr %.020, i64 40
  %46 = load ptr, ptr %45, align 8, !tbaa !105
  call void %43(ptr noundef %46) #22
  br label %finish_active_slot.exit

.critedge16:                                      ; preds = %13, %6
  %47 = load ptr, ptr @stderr, align 8, !tbaa !106
  %48 = call i64 @fwrite(ptr nonnull @.str.178, i64 43, i64 1, ptr %47) #24
  br label %finish_active_slot.exit

49:                                               ; preds = %.lr.ph23
  %50 = load ptr, ptr @stderr, align 8, !tbaa !106
  %51 = call i32 (ptr, ptr, ...) @fprintf(ptr noundef %50, ptr noundef nonnull @.str.179, i32 noundef %4) #25
  br label %finish_active_slot.exit

finish_active_slot.exit:                          ; preds = %44, %41, %.critedge16, %49
  %52 = load ptr, ptr @curlm, align 8, !tbaa !62
  %53 = call ptr @curl_multi_info_read(ptr noundef %52, ptr noundef nonnull %1) #22
  %.not = icmp eq ptr %53, null
  br i1 %.not, label %._crit_edge, label %.lr.ph23, !llvm.loop !108

._crit_edge:                                      ; preds = %finish_active_slot.exit, %0
  call void @llvm.lifetime.end.p0(i64 4, ptr nonnull %1) #22
  ret void
}